; Function Attrs: mustprogress uwtable
define void @_ZN32pxrInternal_v0_24__pxrReserved__7TfToken4FindERKNSt7__cxx1112basic_stringIcSt11char_traitsIcESaIcEEE(ptr dead_on_unwind noalias writable sret(%"class.pxrInternal_v0_24__pxrReserved__::TfToken") align 8 captures(none) initializes((0, 8)) %0, ptr noundef nonnull align 8 dereferenceable(32) %1) local_unnamed_addr #0 align 2 personality ptr @__gxx_personality_v0 {
  store ptr null, ptr %0, align 8
  %3 = load atomic i64, ptr @_ZN32pxrInternal_v0_24__pxrReserved__11TfSingletonINS_16Tf_TokenRegistryEE9_instanceE seq_cst, align 8
  %.0.i.i.i = inttoptr i64 %3 to ptr
  %.not.i.i = icmp eq i64 %3, 0
  br i1 %.not.i.i, label %4, label %_ZN32pxrInternal_v0_24__pxrReserved__16Tf_TokenRegistry12_GetInstanceEv.exit

4:                                                ; preds = %2
  %5 = invoke noundef ptr @_ZN32pxrInternal_v0_24__pxrReserved__11TfSingletonINS_16Tf_TokenRegistryEE15_CreateInstanceERSt6atomicIPS1_E(ptr noundef nonnull align 8 dereferenceable(8) @_ZN32pxrInternal_v0_24__pxrReserved__11TfSingletonINS_16Tf_TokenRegistryEE9_instanceE)
          to label %_ZN32pxrInternal_v0_24__pxrReserved__16Tf_TokenRegistry12_GetInstanceEv.exit unwind label %7

_ZN32pxrInternal_v0_24__pxrReserved__16Tf_TokenRegistry12_GetInstanceEv.exit: ; preds = %2, %4
  %.0.i.i = phi ptr [ %.0.i.i.i, %2 ], [ %5, %4 ]
  %6 = invoke ptr @_ZNK32pxrInternal_v0_24__pxrReserved__16Tf_TokenRegistry12_FindPtrImplIRKNSt7__cxx1112basic_stringIcSt11char_traitsIcESaIcEEEEENS_16TfPointerAndBitsIKNS_7TfToken4_RepEEET_(ptr noundef nonnull align 64 dereferenceable(8192) %.0.i.i, ptr noundef nonnull align 8 dereferenceable(32) %1)
          to label %_ZNK32pxrInternal_v0_24__pxrReserved__16Tf_TokenRegistry11_FindPtrStrERKNSt7__cxx1112basic_stringIcSt11char_traitsIcESaIcEEE.exit unwind label %7

_ZNK32pxrInternal_v0_24__pxrReserved__16Tf_TokenRegistry11_FindPtrStrERKNSt7__cxx1112basic_stringIcSt11char_traitsIcESaIcEEE.exit: ; preds = %_ZN32pxrInternal_v0_24__pxrReserved__16Tf_TokenRegistry12_GetInstanceEv.exit
  store ptr %6, ptr %0, align 8
  ret void

7:                                                ; preds = %_ZN32pxrInternal_v0_24__pxrReserved__16Tf_TokenRegistry12_GetInstanceEv.exit, %4
  %8 = landingpad { ptr, i32 }
          cleanup
  %9 = load ptr, ptr %0, align 8
  %10 = ptrtoint ptr %9 to i64
  %11 = and i64 %10, 7
  %.not.i.i4 = icmp eq i64 %11, 0
  br i1 %.not.i.i4, label %_ZN32pxrInternal_v0_24__pxrReserved__7TfTokenD2Ev.exit, label %12

12:                                               ; preds = %7
  %13 = and i64 %10, -8
  %14 = inttoptr i64 %13 to ptr
  %15 = atomicrmw sub ptr %14, i32 2 release, align 4
  br label %_ZN32pxrInternal_v0_24__pxrReserved__7TfTokenD2Ev.exit

_ZN32pxrInternal_v0_24__pxrReserved__7TfTokenD2Ev.exit: ; preds = %7, %12
  resume { ptr, i32 } %8
}